; Function Attrs: mustprogress nofree norecurse nosync nounwind willreturn memory(argmem: readwrite) uwtable
define void @_ZN4base11PickleSizer9AddStringERKNS_16BasicStringPieceINSt7__cxx1112basic_stringIcSt11char_traitsIcESaIcEEEEE(ptr noundef nonnull align 8 captures(none) dereferenceable(8) %0, ptr noundef nonnull readonly align 8 captures(none) dereferenceable(16) %1) local_unnamed_addr #3 align 2 personality ptr @__gxx_personality_v0 {
  %3 = load i64, ptr %0, align 8, !tbaa !3
  %4 = add i64 %3, 4
  %5 = getelementptr inbounds nuw i8, ptr %1, i64 8
  %6 = load i64, ptr %5, align 8, !tbaa !40
  %sext = shl i64 %6, 32
  %7 = ashr exact i64 %sext, 32
  %8 = add nsw i64 %7, 3
  %9 = and i64 %8, -4
  %10 = add i64 %9, %4
  store i64 %10, ptr %0, align 8, !tbaa !3
  ret void
}